In archive libArduinoMessagingProtocol.a:

RemoteDevice.o:     file format elf32-avr

Sections:
Idx Name          Size      VMA       LMA       File off  Algn
  0 .group        00000008  00000000  00000000  00000034  2**2
                  CONTENTS, READONLY, EXCLUDE, GROUP, LINK_ONCE_DISCARD
  1 .text         00000000  00000000  00000000  0000003c  2**0
                  CONTENTS, ALLOC, LOAD, READONLY, CODE
  2 .data         00000000  00000000  00000000  0000003c  2**0
                  CONTENTS, ALLOC, LOAD, DATA
  3 .bss          00000000  00000000  00000000  0000003c  2**0
                  ALLOC
  4 .text._ZN12RemoteDeviceD2Ev 00000002  00000000  00000000  0000003c  2**0
                  CONTENTS, ALLOC, LOAD, READONLY, CODE
  5 .text._ZN12RemoteDeviceD0Ev 00000008  00000000  00000000  0000003e  2**0
                  CONTENTS, ALLOC, LOAD, RELOC, READONLY, CODE
  6 .text._ZN12RemoteDeviceC2EP13MessageParserP7MessageP12OutputStreamP11InputStream 00000024  00000000  00000000  00000046  2**0
                  CONTENTS, ALLOC, LOAD, RELOC, READONLY, CODE
  7 .text._ZN12RemoteDevice15transmitMessageEP7Message 000000de  00000000  00000000  0000006a  2**0
                  CONTENTS, ALLOC, LOAD, RELOC, READONLY, CODE
  8 .text._ZN12RemoteDevice14receiveMessageEP7Message 0000007c  00000000  00000000  00000148  2**0
                  CONTENTS, ALLOC, LOAD, RELOC, READONLY, CODE
  9 .text._ZN12RemoteDevice18waitForMessageTypeEN7Message4TypeEm 00000090  00000000  00000000  000001c4  2**0
                  CONTENTS, ALLOC, LOAD, RELOC, READONLY, CODE
 10 .text._ZN12RemoteDevice29transmitWaitingForMessageTypeEP7MessageNS0_4TypeEm 0000003a  00000000  00000000  00000254  2**0
                  CONTENTS, ALLOC, LOAD, RELOC, READONLY, CODE
 11 .text._ZN12RemoteDevice7connectEm 0000004a  00000000  00000000  0000028e  2**0
                  CONTENTS, ALLOC, LOAD, RELOC, READONLY, CODE
 12 .text._ZN12RemoteDevice11isConnectedEm 0000004a  00000000  00000000  000002d8  2**0
                  CONTENTS, ALLOC, LOAD, RELOC, READONLY, CODE
 13 .rodata._ZTV12RemoteDevice 00000008  00000000  00000000  00000322  2**0
                  CONTENTS, ALLOC, LOAD, RELOC, READONLY, DATA
 14 .comment      00000012  00000000  00000000  0000032a  2**0
                  CONTENTS, READONLY

Disassembly of section .text._ZN12RemoteDeviceD2Ev:

00000000 <_ZN12RemoteDeviceD1Ev>:
   0:	08 95       	ret

Disassembly of section .text._ZN12RemoteDeviceD0Ev:

00000000 <_ZN12RemoteDeviceD0Ev>:
   0:	6a e0       	ldi	r22, 0x0A	; 10
   2:	70 e0       	ldi	r23, 0x00	; 0
   4:	0c 94 00 00 	jmp	0	; 0x0 <_ZN12RemoteDeviceD0Ev>

Disassembly of section .text._ZN12RemoteDeviceC2EP13MessageParserP7MessageP12OutputStreamP11InputStream:

00000000 <_ZN12RemoteDeviceC1EP13MessageParserP7MessageP12OutputStreamP11InputStream>:
   0:	0f 93       	push	r16
   2:	1f 93       	push	r17
   4:	fc 01       	movw	r30, r24
   6:	80 e0       	ldi	r24, 0x00	; 0
   8:	90 e0       	ldi	r25, 0x00	; 0
   a:	91 83       	std	Z+1, r25	; 0x01
   c:	80 83       	st	Z, r24
   e:	73 83       	std	Z+3, r23	; 0x03
  10:	62 83       	std	Z+2, r22	; 0x02
  12:	55 83       	std	Z+5, r21	; 0x05
  14:	44 83       	std	Z+4, r20	; 0x04
  16:	37 83       	std	Z+7, r19	; 0x07
  18:	26 83       	std	Z+6, r18	; 0x06
  1a:	11 87       	std	Z+9, r17	; 0x09
  1c:	00 87       	std	Z+8, r16	; 0x08
  1e:	1f 91       	pop	r17
  20:	0f 91       	pop	r16
  22:	08 95       	ret

Disassembly of section .text._ZN12RemoteDevice15transmitMessageEP7Message:

00000000 <_ZN12RemoteDevice15transmitMessageEP7Message>:
   0:	af 92       	push	r10
   2:	bf 92       	push	r11
   4:	cf 92       	push	r12
   6:	df 92       	push	r13
   8:	ff 92       	push	r15
   a:	0f 93       	push	r16
   c:	1f 93       	push	r17
   e:	cf 93       	push	r28
  10:	df 93       	push	r29
  12:	ec 01       	movw	r28, r24
  14:	8b 01       	movw	r16, r22
  16:	0e 94 00 00 	call	0	; 0x0 <_ZN12RemoteDevice15transmitMessageEP7Message>
  1a:	c8 01       	movw	r24, r16
  1c:	0e 94 00 00 	call	0	; 0x0 <_ZN12RemoteDevice15transmitMessageEP7Message>
  20:	8e 81       	ldd	r24, Y+6	; 0x06
  22:	9f 81       	ldd	r25, Y+7	; 0x07
  24:	dc 01       	movw	r26, r24
  26:	ed 91       	ld	r30, X+
  28:	fc 91       	ld	r31, X
  2a:	04 80       	ldd	r0, Z+4	; 0x04
  2c:	f5 81       	ldd	r31, Z+5	; 0x05
  2e:	e0 2d       	mov	r30, r0
  30:	6a ea       	ldi	r22, 0xAA	; 170
  32:	09 95       	icall
  34:	ce 80       	ldd	r12, Y+6	; 0x06
  36:	df 80       	ldd	r13, Y+7	; 0x07
  38:	d6 01       	movw	r26, r12
  3a:	ed 91       	ld	r30, X+
  3c:	fc 91       	ld	r31, X
  3e:	a4 80       	ldd	r10, Z+4	; 0x04
  40:	b5 80       	ldd	r11, Z+5	; 0x05
  42:	c8 01       	movw	r24, r16
  44:	0e 94 00 00 	call	0	; 0x0 <_ZN12RemoteDevice15transmitMessageEP7Message>
  48:	68 2f       	mov	r22, r24
  4a:	c6 01       	movw	r24, r12
  4c:	f5 01       	movw	r30, r10
  4e:	09 95       	icall
  50:	ce 80       	ldd	r12, Y+6	; 0x06
  52:	df 80       	ldd	r13, Y+7	; 0x07
  54:	d6 01       	movw	r26, r12
  56:	ed 91       	ld	r30, X+
  58:	fc 91       	ld	r31, X
  5a:	a4 80       	ldd	r10, Z+4	; 0x04
  5c:	b5 80       	ldd	r11, Z+5	; 0x05
  5e:	c8 01       	movw	r24, r16
  60:	0e 94 00 00 	call	0	; 0x0 <_ZN12RemoteDevice15transmitMessageEP7Message>
  64:	68 2f       	mov	r22, r24
  66:	c6 01       	movw	r24, r12
  68:	f5 01       	movw	r30, r10
  6a:	09 95       	icall
  6c:	ce 80       	ldd	r12, Y+6	; 0x06
  6e:	df 80       	ldd	r13, Y+7	; 0x07
  70:	d6 01       	movw	r26, r12
  72:	ed 91       	ld	r30, X+
  74:	fc 91       	ld	r31, X
  76:	a4 80       	ldd	r10, Z+4	; 0x04
  78:	b5 80       	ldd	r11, Z+5	; 0x05
  7a:	c8 01       	movw	r24, r16
  7c:	0e 94 00 00 	call	0	; 0x0 <_ZN12RemoteDevice15transmitMessageEP7Message>
  80:	68 2f       	mov	r22, r24
  82:	c6 01       	movw	r24, r12
  84:	f5 01       	movw	r30, r10
  86:	09 95       	icall
  88:	ce 80       	ldd	r12, Y+6	; 0x06
  8a:	df 80       	ldd	r13, Y+7	; 0x07
  8c:	d6 01       	movw	r26, r12
  8e:	ed 91       	ld	r30, X+
  90:	fc 91       	ld	r31, X
  92:	a6 80       	ldd	r10, Z+6	; 0x06
  94:	b7 80       	ldd	r11, Z+7	; 0x07
  96:	c8 01       	movw	r24, r16
  98:	0e 94 00 00 	call	0	; 0x0 <_ZN12RemoteDevice15transmitMessageEP7Message>
  9c:	f8 2e       	mov	r15, r24
  9e:	c8 01       	movw	r24, r16
  a0:	0e 94 00 00 	call	0	; 0x0 <_ZN12RemoteDevice15transmitMessageEP7Message>
  a4:	4f 2d       	mov	r20, r15
  a6:	50 e0       	ldi	r21, 0x00	; 0
  a8:	bc 01       	movw	r22, r24
  aa:	c6 01       	movw	r24, r12
  ac:	f5 01       	movw	r30, r10
  ae:	09 95       	icall
  b0:	8e 81       	ldd	r24, Y+6	; 0x06
  b2:	9f 81       	ldd	r25, Y+7	; 0x07
  b4:	dc 01       	movw	r26, r24
  b6:	ed 91       	ld	r30, X+
  b8:	fc 91       	ld	r31, X
  ba:	04 80       	ldd	r0, Z+4	; 0x04
  bc:	f5 81       	ldd	r31, Z+5	; 0x05
  be:	e0 2d       	mov	r30, r0
  c0:	6b eb       	ldi	r22, 0xBB	; 187
  c2:	09 95       	icall
  c4:	0e 94 00 00 	call	0	; 0x0 <_ZN12RemoteDevice15transmitMessageEP7Message>
  c8:	81 e0       	ldi	r24, 0x01	; 1
  ca:	df 91       	pop	r29
  cc:	cf 91       	pop	r28
  ce:	1f 91       	pop	r17
  d0:	0f 91       	pop	r16
  d2:	ff 90       	pop	r15
  d4:	df 90       	pop	r13
  d6:	cf 90       	pop	r12
  d8:	bf 90       	pop	r11
  da:	af 90       	pop	r10
  dc:	08 95       	ret

Disassembly of section .text._ZN12RemoteDevice14receiveMessageEP7Message:

00000000 <_ZN12RemoteDevice14receiveMessageEP7Message>:
   0:	ef 92       	push	r14
   2:	ff 92       	push	r15
   4:	0f 93       	push	r16
   6:	1f 93       	push	r17
   8:	cf 93       	push	r28
   a:	8c 01       	movw	r16, r24
   c:	7b 01       	movw	r14, r22
   e:	d8 01       	movw	r26, r16
  10:	18 96       	adiw	r26, 0x08	; 8
  12:	8d 91       	ld	r24, X+
  14:	9c 91       	ld	r25, X
  16:	dc 01       	movw	r26, r24
  18:	ed 91       	ld	r30, X+
  1a:	fc 91       	ld	r31, X
  1c:	02 80       	ldd	r0, Z+2	; 0x02
  1e:	f3 81       	ldd	r31, Z+3	; 0x03
  20:	e0 2d       	mov	r30, r0
  22:	09 95       	icall
  24:	18 16       	cp	r1, r24
  26:	19 06       	cpc	r1, r25
  28:	04 f4       	brge	.+0      	; 0x2a <_ZN12RemoteDevice14receiveMessageEP7Message+0x2a>
  2a:	f8 01       	movw	r30, r16
  2c:	80 85       	ldd	r24, Z+8	; 0x08
  2e:	91 85       	ldd	r25, Z+9	; 0x09
  30:	dc 01       	movw	r26, r24
  32:	ed 91       	ld	r30, X+
  34:	fc 91       	ld	r31, X
  36:	00 84       	ldd	r0, Z+8	; 0x08
  38:	f1 85       	ldd	r31, Z+9	; 0x09
  3a:	e0 2d       	mov	r30, r0
  3c:	09 95       	icall
  3e:	68 2f       	mov	r22, r24
  40:	f8 01       	movw	r30, r16
  42:	82 81       	ldd	r24, Z+2	; 0x02
  44:	93 81       	ldd	r25, Z+3	; 0x03
  46:	0e 94 00 00 	call	0	; 0x0 <_ZN12RemoteDevice14receiveMessageEP7Message>
  4a:	c8 2f       	mov	r28, r24
  4c:	d8 01       	movw	r26, r16
  4e:	12 96       	adiw	r26, 0x02	; 2
  50:	8d 91       	ld	r24, X+
  52:	9c 91       	ld	r25, X
  54:	c1 11       	cpse	r28, r1
  56:	00 c0       	rjmp	.+0      	; 0x58 <_ZN12RemoteDevice14receiveMessageEP7Message+0x58>
  58:	0e 94 00 00 	call	0	; 0x0 <_ZN12RemoteDevice14receiveMessageEP7Message>
  5c:	8c 2f       	mov	r24, r28
  5e:	cf 91       	pop	r28
  60:	1f 91       	pop	r17
  62:	0f 91       	pop	r16
  64:	ff 90       	pop	r15
  66:	ef 90       	pop	r14
  68:	08 95       	ret
  6a:	b7 01       	movw	r22, r14
  6c:	0e 94 00 00 	call	0	; 0x0 <_ZN12RemoteDevice14receiveMessageEP7Message>
  70:	c8 2f       	mov	r28, r24
  72:	88 23       	and	r24, r24
  74:	01 f0       	breq	.+0      	; 0x76 <_ZN12RemoteDevice14receiveMessageEP7Message+0x76>
  76:	00 c0       	rjmp	.+0      	; 0x78 <_ZN12RemoteDevice14receiveMessageEP7Message+0x78>
  78:	c0 e0       	ldi	r28, 0x00	; 0
  7a:	00 c0       	rjmp	.+0      	; 0x7c <__SREG__+0x3d>

Disassembly of section .text._ZN12RemoteDevice18waitForMessageTypeEN7Message4TypeEm:

00000000 <_ZN12RemoteDevice18waitForMessageTypeEN7Message4TypeEm>:
   0:	8f 92       	push	r8
   2:	9f 92       	push	r9
   4:	af 92       	push	r10
   6:	bf 92       	push	r11
   8:	cf 92       	push	r12
   a:	df 92       	push	r13
   c:	ef 92       	push	r14
   e:	ff 92       	push	r15
  10:	0f 93       	push	r16
  12:	1f 93       	push	r17
  14:	cf 93       	push	r28
  16:	df 93       	push	r29
  18:	8c 01       	movw	r16, r24
  1a:	d6 2f       	mov	r29, r22
  1c:	49 01       	movw	r8, r18
  1e:	5a 01       	movw	r10, r20
  20:	0e 94 00 00 	call	0	; 0x0 <_ZN12RemoteDevice18waitForMessageTypeEN7Message4TypeEm>
  24:	0e 94 00 00 	call	0	; 0x0 <_ZN12RemoteDevice18waitForMessageTypeEN7Message4TypeEm>
  28:	6b 01       	movw	r12, r22
  2a:	7c 01       	movw	r14, r24
  2c:	c8 0c       	add	r12, r8
  2e:	d9 1c       	adc	r13, r9
  30:	ea 1c       	adc	r14, r10
  32:	fb 1c       	adc	r15, r11
  34:	f8 01       	movw	r30, r16
  36:	64 81       	ldd	r22, Z+4	; 0x04
  38:	75 81       	ldd	r23, Z+5	; 0x05
  3a:	c8 01       	movw	r24, r16
  3c:	0e 94 00 00 	call	0	; 0x0 <_ZN12RemoteDevice18waitForMessageTypeEN7Message4TypeEm>
  40:	c8 2f       	mov	r28, r24
  42:	81 11       	cpse	r24, r1
  44:	00 c0       	rjmp	.+0      	; 0x46 <_ZN12RemoteDevice18waitForMessageTypeEN7Message4TypeEm+0x46>
  46:	81 14       	cp	r8, r1
  48:	91 04       	cpc	r9, r1
  4a:	a1 04       	cpc	r10, r1
  4c:	b1 04       	cpc	r11, r1
  4e:	01 f0       	breq	.+0      	; 0x50 <_ZN12RemoteDevice18waitForMessageTypeEN7Message4TypeEm+0x50>
  50:	0e 94 00 00 	call	0	; 0x0 <_ZN12RemoteDevice18waitForMessageTypeEN7Message4TypeEm>
  54:	6c 15       	cp	r22, r12
  56:	7d 05       	cpc	r23, r13
  58:	8e 05       	cpc	r24, r14
  5a:	9f 05       	cpc	r25, r15
  5c:	00 f0       	brcs	.+0      	; 0x5e <_ZN12RemoteDevice18waitForMessageTypeEN7Message4TypeEm+0x5e>
  5e:	c0 e0       	ldi	r28, 0x00	; 0
  60:	00 c0       	rjmp	.+0      	; 0x62 <_ZN12RemoteDevice18waitForMessageTypeEN7Message4TypeEm+0x62>
  62:	f8 01       	movw	r30, r16
  64:	84 81       	ldd	r24, Z+4	; 0x04
  66:	95 81       	ldd	r25, Z+5	; 0x05
  68:	0e 94 00 00 	call	0	; 0x0 <_ZN12RemoteDevice18waitForMessageTypeEN7Message4TypeEm>
  6c:	8d 13       	cpse	r24, r29
  6e:	00 c0       	rjmp	.+0      	; 0x70 <_ZN12RemoteDevice18waitForMessageTypeEN7Message4TypeEm+0x70>
  70:	0e 94 00 00 	call	0	; 0x0 <_ZN12RemoteDevice18waitForMessageTypeEN7Message4TypeEm>
  74:	8c 2f       	mov	r24, r28
  76:	df 91       	pop	r29
  78:	cf 91       	pop	r28
  7a:	1f 91       	pop	r17
  7c:	0f 91       	pop	r16
  7e:	ff 90       	pop	r15
  80:	ef 90       	pop	r14
  82:	df 90       	pop	r13
  84:	cf 90       	pop	r12
  86:	bf 90       	pop	r11
  88:	af 90       	pop	r10
  8a:	9f 90       	pop	r9
  8c:	8f 90       	pop	r8
  8e:	08 95       	ret

Disassembly of section .text._ZN12RemoteDevice29transmitWaitingForMessageTypeEP7MessageNS0_4TypeEm:

00000000 <_ZN12RemoteDevice29transmitWaitingForMessageTypeEP7MessageNS0_4TypeEm>:
   0:	8f 92       	push	r8
   2:	9f 92       	push	r9
   4:	af 92       	push	r10
   6:	bf 92       	push	r11
   8:	ff 92       	push	r15
   a:	0f 93       	push	r16
   c:	1f 93       	push	r17
   e:	cf 93       	push	r28
  10:	df 93       	push	r29
  12:	ec 01       	movw	r28, r24
  14:	f4 2e       	mov	r15, r20
  16:	59 01       	movw	r10, r18
  18:	0e 94 00 00 	call	0	; 0x0 <_ZN12RemoteDevice29transmitWaitingForMessageTypeEP7MessageNS0_4TypeEm>
  1c:	a5 01       	movw	r20, r10
  1e:	98 01       	movw	r18, r16
  20:	6f 2d       	mov	r22, r15
  22:	ce 01       	movw	r24, r28
  24:	df 91       	pop	r29
  26:	cf 91       	pop	r28
  28:	1f 91       	pop	r17
  2a:	0f 91       	pop	r16
  2c:	ff 90       	pop	r15
  2e:	bf 90       	pop	r11
  30:	af 90       	pop	r10
  32:	9f 90       	pop	r9
  34:	8f 90       	pop	r8
  36:	0c 94 00 00 	jmp	0	; 0x0 <_ZN12RemoteDevice29transmitWaitingForMessageTypeEP7MessageNS0_4TypeEm>

Disassembly of section .text._ZN12RemoteDevice7connectEm:

00000000 <_ZN12RemoteDevice7connectEm>:
   0:	cf 92       	push	r12
   2:	df 92       	push	r13
   4:	ef 92       	push	r14
   6:	ff 92       	push	r15
   8:	0f 93       	push	r16
   a:	1f 93       	push	r17
   c:	cf 93       	push	r28
   e:	df 93       	push	r29
  10:	ec 01       	movw	r28, r24
  12:	6a 01       	movw	r12, r20
  14:	7b 01       	movw	r14, r22
  16:	8c 81       	ldd	r24, Y+4	; 0x04
  18:	9d 81       	ldd	r25, Y+5	; 0x05
  1a:	0e 94 00 00 	call	0	; 0x0 <_ZN12RemoteDevice7connectEm>
  1e:	62 e0       	ldi	r22, 0x02	; 2
  20:	8c 81       	ldd	r24, Y+4	; 0x04
  22:	9d 81       	ldd	r25, Y+5	; 0x05
  24:	0e 94 00 00 	call	0	; 0x0 <_ZN12RemoteDevice7connectEm>
  28:	6c 81       	ldd	r22, Y+4	; 0x04
  2a:	7d 81       	ldd	r23, Y+5	; 0x05
  2c:	97 01       	movw	r18, r14
  2e:	86 01       	movw	r16, r12
  30:	42 e0       	ldi	r20, 0x02	; 2
  32:	ce 01       	movw	r24, r28
  34:	0e 94 00 00 	call	0	; 0x0 <_ZN12RemoteDevice7connectEm>
  38:	df 91       	pop	r29
  3a:	cf 91       	pop	r28
  3c:	1f 91       	pop	r17
  3e:	0f 91       	pop	r16
  40:	ff 90       	pop	r15
  42:	ef 90       	pop	r14
  44:	df 90       	pop	r13
  46:	cf 90       	pop	r12
  48:	08 95       	ret

Disassembly of section .text._ZN12RemoteDevice11isConnectedEm:

00000000 <_ZN12RemoteDevice11isConnectedEm>:
   0:	cf 92       	push	r12
   2:	df 92       	push	r13
   4:	ef 92       	push	r14
   6:	ff 92       	push	r15
   8:	0f 93       	push	r16
   a:	1f 93       	push	r17
   c:	cf 93       	push	r28
   e:	df 93       	push	r29
  10:	ec 01       	movw	r28, r24
  12:	6a 01       	movw	r12, r20
  14:	7b 01       	movw	r14, r22
  16:	8c 81       	ldd	r24, Y+4	; 0x04
  18:	9d 81       	ldd	r25, Y+5	; 0x05
  1a:	0e 94 00 00 	call	0	; 0x0 <_ZN12RemoteDevice11isConnectedEm>
  1e:	66 e0       	ldi	r22, 0x06	; 6
  20:	8c 81       	ldd	r24, Y+4	; 0x04
  22:	9d 81       	ldd	r25, Y+5	; 0x05
  24:	0e 94 00 00 	call	0	; 0x0 <_ZN12RemoteDevice11isConnectedEm>
  28:	6c 81       	ldd	r22, Y+4	; 0x04
  2a:	7d 81       	ldd	r23, Y+5	; 0x05
  2c:	97 01       	movw	r18, r14
  2e:	86 01       	movw	r16, r12
  30:	41 e0       	ldi	r20, 0x01	; 1
  32:	ce 01       	movw	r24, r28
  34:	0e 94 00 00 	call	0	; 0x0 <_ZN12RemoteDevice11isConnectedEm>
  38:	df 91       	pop	r29
  3a:	cf 91       	pop	r28
  3c:	1f 91       	pop	r17
  3e:	0f 91       	pop	r16
  40:	ff 90       	pop	r15
  42:	ef 90       	pop	r14
  44:	df 90       	pop	r13
  46:	cf 90       	pop	r12
  48:	08 95       	ret

Notifier.o:     file format elf32-avr

Sections:
Idx Name          Size      VMA       LMA       File off  Algn
  0 .text         00000000  00000000  00000000  00000034  2**0
                  CONTENTS, ALLOC, LOAD, READONLY, CODE
  1 .data         00000000  00000000  00000000  00000034  2**0
                  CONTENTS, ALLOC, LOAD, DATA
  2 .bss          00000000  00000000  00000000  00000034  2**0
                  ALLOC
  3 .text._ZN8Notifier5setupEhh 0000000a  00000000  00000000  00000034  2**0
                  CONTENTS, ALLOC, LOAD, RELOC, READONLY, CODE
  4 .text._ZN8Notifier22notifyBeginTransmitingEv 00000010  00000000  00000000  0000003e  2**0
                  CONTENTS, ALLOC, LOAD, RELOC, READONLY, CODE
  5 .text._ZN8Notifier20notifyEndTransmitingEv 00000010  00000000  00000000  0000004e  2**0
                  CONTENTS, ALLOC, LOAD, RELOC, READONLY, CODE
  6 .text._ZN8Notifier18notifyBeginWaitingEv 00000010  00000000  00000000  0000005e  2**0
                  CONTENTS, ALLOC, LOAD, RELOC, READONLY, CODE
  7 .text._ZN8Notifier16notifyEndWaitingEv 00000010  00000000  00000000  0000006e  2**0
                  CONTENTS, ALLOC, LOAD, RELOC, READONLY, CODE
  8 .bss._ZN8Notifier10waitingPinE 00000001  00000000  00000000  0000007e  2**0
                  ALLOC
  9 .bss._ZN8Notifier14transmitingPinE 00000001  00000000  00000000  0000007e  2**0
                  ALLOC
 10 .comment      00000012  00000000  00000000  0000007e  2**0
                  CONTENTS, READONLY

Disassembly of section .text._ZN8Notifier5setupEhh:

00000000 <_ZN8Notifier5setupEhh>:
   0:	80 93 00 00 	sts	0x0000, r24	; 0x800000 <__SREG__+0x7fffc1>
   4:	60 93 00 00 	sts	0x0000, r22	; 0x800000 <__SREG__+0x7fffc1>
   8:	08 95       	ret

Disassembly of section .text._ZN8Notifier22notifyBeginTransmitingEv:

00000000 <_ZN8Notifier22notifyBeginTransmitingEv>:
   0:	80 91 00 00 	lds	r24, 0x0000	; 0x800000 <__SREG__+0x7fffc1>
   4:	88 23       	and	r24, r24
   6:	01 f0       	breq	.+0      	; 0x8 <_ZN8Notifier22notifyBeginTransmitingEv+0x8>
   8:	61 e0       	ldi	r22, 0x01	; 1
   a:	0c 94 00 00 	jmp	0	; 0x0 <_ZN8Notifier22notifyBeginTransmitingEv>
   e:	08 95       	ret

Disassembly of section .text._ZN8Notifier20notifyEndTransmitingEv:

00000000 <_ZN8Notifier20notifyEndTransmitingEv>:
   0:	80 91 00 00 	lds	r24, 0x0000	; 0x800000 <__SREG__+0x7fffc1>
   4:	88 23       	and	r24, r24
   6:	01 f0       	breq	.+0      	; 0x8 <_ZN8Notifier20notifyEndTransmitingEv+0x8>
   8:	60 e0       	ldi	r22, 0x00	; 0
   a:	0c 94 00 00 	jmp	0	; 0x0 <_ZN8Notifier20notifyEndTransmitingEv>
   e:	08 95       	ret

Disassembly of section .text._ZN8Notifier18notifyBeginWaitingEv:

00000000 <_ZN8Notifier18notifyBeginWaitingEv>:
   0:	80 91 00 00 	lds	r24, 0x0000	; 0x800000 <__SREG__+0x7fffc1>
   4:	88 23       	and	r24, r24
   6:	01 f0       	breq	.+0      	; 0x8 <_ZN8Notifier18notifyBeginWaitingEv+0x8>
   8:	61 e0       	ldi	r22, 0x01	; 1
   a:	0c 94 00 00 	jmp	0	; 0x0 <_ZN8Notifier18notifyBeginWaitingEv>
   e:	08 95       	ret

Disassembly of section .text._ZN8Notifier16notifyEndWaitingEv:

00000000 <_ZN8Notifier16notifyEndWaitingEv>:
   0:	80 91 00 00 	lds	r24, 0x0000	; 0x800000 <__SREG__+0x7fffc1>
   4:	88 23       	and	r24, r24
   6:	01 f0       	breq	.+0      	; 0x8 <_ZN8Notifier16notifyEndWaitingEv+0x8>
   8:	60 e0       	ldi	r22, 0x00	; 0
   a:	0c 94 00 00 	jmp	0	; 0x0 <_ZN8Notifier16notifyEndWaitingEv>
   e:	08 95       	ret

MessageParser.o:     file format elf32-avr

Sections:
Idx Name          Size      VMA       LMA       File off  Algn
  0 .text         00000000  00000000  00000000  00000034  2**0
                  CONTENTS, ALLOC, LOAD, READONLY, CODE
  1 .data         00000000  00000000  00000000  00000034  2**0
                  CONTENTS, ALLOC, LOAD, DATA
  2 .bss          00000000  00000000  00000000  00000034  2**0
                  ALLOC
  3 .text._ZN13MessageParserC2EPht 00000012  00000000  00000000  00000034  2**0
                  CONTENTS, ALLOC, LOAD, READONLY, CODE
  4 .text._ZN13MessageParser5resetEv 00000006  00000000  00000000  00000046  2**0
                  CONTENTS, ALLOC, LOAD, READONLY, CODE
  5 .text._ZN13MessageParser6decodeEh 000000b2  00000000  00000000  0000004c  2**1
                  CONTENTS, ALLOC, LOAD, RELOC, READONLY, CODE
  6 .text._ZN13MessageParser11decodeBytesEPht 00000048  00000000  00000000  000000fe  2**0
                  CONTENTS, ALLOC, LOAD, RELOC, READONLY, CODE
  7 .text._ZN13MessageParser17wasMessageDecodedEv 00000010  00000000  00000000  00000146  2**0
                  CONTENTS, ALLOC, LOAD, RELOC, READONLY, CODE
  8 .text._ZN13MessageParser8getStateEv 00000006  00000000  00000000  00000156  2**0
                  CONTENTS, ALLOC, LOAD, READONLY, CODE
  9 .text._ZN13MessageParser21collectDecodedMessageEP7Message 00000060  00000000  00000000  0000015c  2**0
                  CONTENTS, ALLOC, LOAD, RELOC, READONLY, CODE
 10 .text._ZN13MessageParser17getDecodedMessageEP7Message 00000004  00000000  00000000  000001bc  2**0
                  CONTENTS, ALLOC, LOAD, RELOC, READONLY, CODE
 11 .comment      00000012  00000000  00000000  000001c0  2**0
                  CONTENTS, READONLY
 12 .avr.prop     00000016  00000000  00000000  000001d2  2**0
                  CONTENTS, RELOC, READONLY

Disassembly of section .text._ZN13MessageParserC2EPht:

00000000 <_ZN13MessageParserC1EPht>:
   0:	fc 01       	movw	r30, r24
   2:	71 83       	std	Z+1, r23	; 0x01
   4:	60 83       	st	Z, r22
   6:	53 83       	std	Z+3, r21	; 0x03
   8:	42 83       	std	Z+2, r20	; 0x02
   a:	15 82       	std	Z+5, r1	; 0x05
   c:	14 82       	std	Z+4, r1	; 0x04
   e:	17 82       	std	Z+7, r1	; 0x07
  10:	08 95       	ret

Disassembly of section .text._ZN13MessageParser5resetEv:

00000000 <_ZN13MessageParser5resetEv>:
   0:	fc 01       	movw	r30, r24
   2:	17 82       	std	Z+7, r1	; 0x07
   4:	08 95       	ret

Disassembly of section .text._ZN13MessageParser6decodeEh:

00000000 <_ZN13MessageParser6decodeEh>:
   0:	dc 01       	movw	r26, r24
   2:	14 96       	adiw	r26, 0x04	; 4
   4:	8d 91       	ld	r24, X+
   6:	9c 91       	ld	r25, X
   8:	15 97       	sbiw	r26, 0x05	; 5
   a:	12 96       	adiw	r26, 0x02	; 2
   c:	2d 91       	ld	r18, X+
   e:	3c 91       	ld	r19, X
  10:	13 97       	sbiw	r26, 0x03	; 3
  12:	82 17       	cp	r24, r18
  14:	93 07       	cpc	r25, r19
  16:	00 f0       	brcs	.+0      	; 0x18 <_ZN13MessageParser6decodeEh+0x18>
  18:	00 c0       	rjmp	.+0      	; 0x1a <_ZN13MessageParser6decodeEh+0x1a>
  1a:	17 96       	adiw	r26, 0x07	; 7
  1c:	ec 91       	ld	r30, X
  1e:	17 97       	sbiw	r26, 0x07	; 7
  20:	e7 30       	cpi	r30, 0x07	; 7
  22:	00 f4       	brcc	.+0      	; 0x24 <_ZN13MessageParser6decodeEh+0x24>
  24:	f0 e0       	ldi	r31, 0x00	; 0
  26:	e0 50       	subi	r30, 0x00	; 0
  28:	f0 40       	sbci	r31, 0x00	; 0
  2a:	0c 94 00 00 	jmp	0	; 0x0 <_ZN13MessageParser6decodeEh>
	...
  3a:	00 00       	nop
  3c:	6a 3a       	cpi	r22, 0xAA	; 170
  3e:	01 f4       	brne	.+0      	; 0x40 <_ZN13MessageParser6decodeEh+0x40>
  40:	15 96       	adiw	r26, 0x05	; 5
  42:	1c 92       	st	X, r1
  44:	1e 92       	st	-X, r1
  46:	14 97       	sbiw	r26, 0x04	; 4
  48:	81 e0       	ldi	r24, 0x01	; 1
  4a:	17 96       	adiw	r26, 0x07	; 7
  4c:	8c 93       	st	X, r24
  4e:	17 97       	sbiw	r26, 0x07	; 7
  50:	00 c0       	rjmp	.+0      	; 0x52 <_ZN13MessageParser6decodeEh+0x52>
  52:	82 e0       	ldi	r24, 0x02	; 2
  54:	00 c0       	rjmp	.+0      	; 0x56 <_ZN13MessageParser6decodeEh+0x56>
  56:	83 e0       	ldi	r24, 0x03	; 3
  58:	00 c0       	rjmp	.+0      	; 0x5a <_ZN13MessageParser6decodeEh+0x5a>
  5a:	84 e0       	ldi	r24, 0x04	; 4
  5c:	17 96       	adiw	r26, 0x07	; 7
  5e:	8c 93       	st	X, r24
  60:	17 97       	sbiw	r26, 0x07	; 7
  62:	16 96       	adiw	r26, 0x06	; 6
  64:	6c 93       	st	X, r22
  66:	16 97       	sbiw	r26, 0x06	; 6
  68:	61 11       	cpse	r22, r1
  6a:	00 c0       	rjmp	.+0      	; 0x6c <_ZN13MessageParser6decodeEh+0x6c>
  6c:	85 e0       	ldi	r24, 0x05	; 5
  6e:	00 c0       	rjmp	.+0      	; 0x70 <_ZN13MessageParser6decodeEh+0x70>
  70:	03 97       	sbiw	r24, 0x03	; 3
  72:	16 96       	adiw	r26, 0x06	; 6
  74:	2c 91       	ld	r18, X
  76:	16 97       	sbiw	r26, 0x06	; 6
  78:	28 17       	cp	r18, r24
  7a:	19 06       	cpc	r1, r25
  7c:	01 f0       	breq	.+0      	; 0x7e <_ZN13MessageParser6decodeEh+0x7e>
  7e:	00 f0       	brcs	.+0      	; 0x80 <_ZN13MessageParser6decodeEh+0x80>
  80:	ed 91       	ld	r30, X+
  82:	fc 91       	ld	r31, X
  84:	11 97       	sbiw	r26, 0x01	; 1
  86:	14 96       	adiw	r26, 0x04	; 4
  88:	8d 91       	ld	r24, X+
  8a:	9c 91       	ld	r25, X
  8c:	15 97       	sbiw	r26, 0x05	; 5
  8e:	9c 01       	movw	r18, r24
  90:	2f 5f       	subi	r18, 0xFF	; 255
  92:	3f 4f       	sbci	r19, 0xFF	; 255
  94:	15 96       	adiw	r26, 0x05	; 5
  96:	3c 93       	st	X, r19
  98:	2e 93       	st	-X, r18
  9a:	14 97       	sbiw	r26, 0x04	; 4
  9c:	e8 0f       	add	r30, r24
  9e:	f9 1f       	adc	r31, r25
  a0:	60 83       	st	Z, r22
  a2:	81 e0       	ldi	r24, 0x01	; 1
  a4:	08 95       	ret
  a6:	6b 3b       	cpi	r22, 0xBB	; 187
  a8:	01 f4       	brne	.+0      	; 0xaa <_ZN13MessageParser6decodeEh+0xaa>
  aa:	86 e0       	ldi	r24, 0x06	; 6
  ac:	00 c0       	rjmp	.+0      	; 0xae <_ZN13MessageParser6decodeEh+0xae>
  ae:	80 e0       	ldi	r24, 0x00	; 0
  b0:	08 95       	ret

Disassembly of section .text._ZN13MessageParser11decodeBytesEPht:

00000000 <_ZN13MessageParser11decodeBytesEPht>:
   0:	cf 92       	push	r12
   2:	df 92       	push	r13
   4:	ef 92       	push	r14
   6:	ff 92       	push	r15
   8:	0f 93       	push	r16
   a:	1f 93       	push	r17
   c:	cf 93       	push	r28
   e:	df 93       	push	r29
  10:	7c 01       	movw	r14, r24
  12:	6a 01       	movw	r12, r20
  14:	8b 01       	movw	r16, r22
  16:	d0 e0       	ldi	r29, 0x00	; 0
  18:	c0 e0       	ldi	r28, 0x00	; 0
  1a:	cc 15       	cp	r28, r12
  1c:	dd 05       	cpc	r29, r13
  1e:	01 f0       	breq	.+0      	; 0x20 <_ZN13MessageParser11decodeBytesEPht+0x20>
  20:	f8 01       	movw	r30, r16
  22:	61 91       	ld	r22, Z+
  24:	8f 01       	movw	r16, r30
  26:	c7 01       	movw	r24, r14
  28:	0e 94 00 00 	call	0	; 0x0 <_ZN13MessageParser11decodeBytesEPht>
  2c:	88 23       	and	r24, r24
  2e:	01 f0       	breq	.+0      	; 0x30 <_ZN13MessageParser11decodeBytesEPht+0x30>
  30:	21 96       	adiw	r28, 0x01	; 1
  32:	00 c0       	rjmp	.+0      	; 0x34 <_ZN13MessageParser11decodeBytesEPht+0x34>
  34:	ce 01       	movw	r24, r28
  36:	df 91       	pop	r29
  38:	cf 91       	pop	r28
  3a:	1f 91       	pop	r17
  3c:	0f 91       	pop	r16
  3e:	ff 90       	pop	r15
  40:	ef 90       	pop	r14
  42:	df 90       	pop	r13
  44:	cf 90       	pop	r12
  46:	08 95       	ret

Disassembly of section .text._ZN13MessageParser17wasMessageDecodedEv:

00000000 <_ZN13MessageParser17wasMessageDecodedEv>:
   0:	21 e0       	ldi	r18, 0x01	; 1
   2:	fc 01       	movw	r30, r24
   4:	87 81       	ldd	r24, Z+7	; 0x07
   6:	86 30       	cpi	r24, 0x06	; 6
   8:	01 f0       	breq	.+0      	; 0xa <_ZN13MessageParser17wasMessageDecodedEv+0xa>
   a:	20 e0       	ldi	r18, 0x00	; 0
   c:	82 2f       	mov	r24, r18
   e:	08 95       	ret

Disassembly of section .text._ZN13MessageParser8getStateEv:

00000000 <_ZN13MessageParser8getStateEv>:
   0:	fc 01       	movw	r30, r24
   2:	87 81       	ldd	r24, Z+7	; 0x07
   4:	08 95       	ret

Disassembly of section .text._ZN13MessageParser21collectDecodedMessageEP7Message:

00000000 <_ZN13MessageParser21collectDecodedMessageEP7Message>:
   0:	0f 93       	push	r16
   2:	1f 93       	push	r17
   4:	cf 93       	push	r28
   6:	df 93       	push	r29
   8:	ec 01       	movw	r28, r24
   a:	8b 01       	movw	r16, r22
   c:	8f 81       	ldd	r24, Y+7	; 0x07
   e:	86 30       	cpi	r24, 0x06	; 6
  10:	01 f4       	brne	.+0      	; 0x12 <_ZN13MessageParser21collectDecodedMessageEP7Message+0x12>
  12:	e8 81       	ld	r30, Y
  14:	f9 81       	ldd	r31, Y+1	; 0x01
  16:	61 81       	ldd	r22, Z+1	; 0x01
  18:	c8 01       	movw	r24, r16
  1a:	0e 94 00 00 	call	0	; 0x0 <_ZN13MessageParser21collectDecodedMessageEP7Message>
  1e:	e8 81       	ld	r30, Y
  20:	f9 81       	ldd	r31, Y+1	; 0x01
  22:	62 81       	ldd	r22, Z+2	; 0x02
  24:	c8 01       	movw	r24, r16
  26:	0e 94 00 00 	call	0	; 0x0 <_ZN13MessageParser21collectDecodedMessageEP7Message>
  2a:	e8 81       	ld	r30, Y
  2c:	f9 81       	ldd	r31, Y+1	; 0x01
  2e:	63 81       	ldd	r22, Z+3	; 0x03
  30:	c8 01       	movw	r24, r16
  32:	0e 94 00 00 	call	0	; 0x0 <_ZN13MessageParser21collectDecodedMessageEP7Message>
  36:	c8 01       	movw	r24, r16
  38:	0e 94 00 00 	call	0	; 0x0 <_ZN13MessageParser21collectDecodedMessageEP7Message>
  3c:	e8 81       	ld	r30, Y
  3e:	f9 81       	ldd	r31, Y+1	; 0x01
  40:	43 81       	ldd	r20, Z+3	; 0x03
  42:	50 e0       	ldi	r21, 0x00	; 0
  44:	bf 01       	movw	r22, r30
  46:	6c 5f       	subi	r22, 0xFC	; 252
  48:	7f 4f       	sbci	r23, 0xFF	; 255
  4a:	0e 94 00 00 	call	0	; 0x0 <_ZN13MessageParser21collectDecodedMessageEP7Message>
  4e:	1f 82       	std	Y+7, r1	; 0x07
  50:	81 e0       	ldi	r24, 0x01	; 1
  52:	df 91       	pop	r29
  54:	cf 91       	pop	r28
  56:	1f 91       	pop	r17
  58:	0f 91       	pop	r16
  5a:	08 95       	ret
  5c:	80 e0       	ldi	r24, 0x00	; 0
  5e:	00 c0       	rjmp	.+0      	; 0x60 <__SREG__+0x21>

Disassembly of section .text._ZN13MessageParser17getDecodedMessageEP7Message:

00000000 <_ZN13MessageParser17getDecodedMessageEP7Message>:
   0:	0c 94 00 00 	jmp	0	; 0x0 <_ZN13MessageParser17getDecodedMessageEP7Message>

Message.o:     file format elf32-avr

Sections:
Idx Name          Size      VMA       LMA       File off  Algn
  0 .text         00000000  00000000  00000000  00000034  2**0
                  CONTENTS, ALLOC, LOAD, READONLY, CODE
  1 .data         00000000  00000000  00000000  00000034  2**0
                  CONTENTS, ALLOC, LOAD, DATA
  2 .bss          00000000  00000000  00000000  00000034  2**0
                  ALLOC
  3 .text._ZN7MessageC2Ev 0000000e  00000000  00000000  00000034  2**0
                  CONTENTS, ALLOC, LOAD, READONLY, CODE
  4 .text._ZN7MessageC2EPh 0000000e  00000000  00000000  00000042  2**0
                  CONTENTS, ALLOC, LOAD, READONLY, CODE
  5 .text._ZN7MessageC2EhhhPh 00000016  00000000  00000000  00000050  2**0
                  CONTENTS, ALLOC, LOAD, READONLY, CODE
  6 .text._ZN7Message5resetEv 0000000a  00000000  00000000  00000066  2**0
                  CONTENTS, ALLOC, LOAD, READONLY, CODE
  7 .text._ZN7Message5getIdEv 00000006  00000000  00000000  00000070  2**0
                  CONTENTS, ALLOC, LOAD, READONLY, CODE
  8 .text._ZN7Message5setIdEh 00000006  00000000  00000000  00000076  2**0
                  CONTENTS, ALLOC, LOAD, READONLY, CODE
  9 .text._ZN7Message14generateNextIdEv 00000010  00000000  00000000  0000007c  2**0
                  CONTENTS, ALLOC, LOAD, RELOC, READONLY, CODE
 10 .text._ZN7Message7getTypeEv 00000006  00000000  00000000  0000008c  2**0
                  CONTENTS, ALLOC, LOAD, READONLY, CODE
 11 .text._ZN7Message7setTypeEh 00000006  00000000  00000000  00000092  2**0
                  CONTENTS, ALLOC, LOAD, READONLY, CODE
 12 .text._ZN7Message14getPayloadSizeEv 00000006  00000000  00000000  00000098  2**0
                  CONTENTS, ALLOC, LOAD, READONLY, CODE
 13 .text._ZN7Message14setPayloadSizeEh 00000006  00000000  00000000  0000009e  2**0
                  CONTENTS, ALLOC, LOAD, READONLY, CODE
 14 .text._ZN7Message10getPayloadEv 00000008  00000000  00000000  000000a4  2**0
                  CONTENTS, ALLOC, LOAD, READONLY, CODE
 15 .text._ZN7Message10setPayloadEPh 00000008  00000000  00000000  000000ac  2**0
                  CONTENTS, ALLOC, LOAD, READONLY, CODE
 16 .text._ZN7Message5toRawEPh 00000054  00000000  00000000  000000b4  2**0
                  CONTENTS, ALLOC, LOAD, RELOC, READONLY, CODE
 17 .bss._ZN7Message6nextIdE 00000001  00000000  00000000  00000108  2**0
                  ALLOC
 18 .comment      00000012  00000000  00000000  00000108  2**0
                  CONTENTS, READONLY

Disassembly of section .text._ZN7MessageC2Ev:

00000000 <_ZN7MessageC1Ev>:
   0:	fc 01       	movw	r30, r24
   2:	10 82       	st	Z, r1
   4:	11 82       	std	Z+1, r1	; 0x01
   6:	12 82       	std	Z+2, r1	; 0x02
   8:	14 82       	std	Z+4, r1	; 0x04
   a:	13 82       	std	Z+3, r1	; 0x03
   c:	08 95       	ret

Disassembly of section .text._ZN7MessageC2EPh:

00000000 <_ZN7MessageC1EPh>:
   0:	fc 01       	movw	r30, r24
   2:	10 82       	st	Z, r1
   4:	11 82       	std	Z+1, r1	; 0x01
   6:	12 82       	std	Z+2, r1	; 0x02
   8:	74 83       	std	Z+4, r23	; 0x04
   a:	63 83       	std	Z+3, r22	; 0x03
   c:	08 95       	ret

Disassembly of section .text._ZN7MessageC2EhhhPh:

00000000 <_ZN7MessageC1EhhhPh>:
   0:	0f 93       	push	r16
   2:	1f 93       	push	r17
   4:	fc 01       	movw	r30, r24
   6:	60 83       	st	Z, r22
   8:	41 83       	std	Z+1, r20	; 0x01
   a:	22 83       	std	Z+2, r18	; 0x02
   c:	14 83       	std	Z+4, r17	; 0x04
   e:	03 83       	std	Z+3, r16	; 0x03
  10:	1f 91       	pop	r17
  12:	0f 91       	pop	r16
  14:	08 95       	ret

Disassembly of section .text._ZN7Message5resetEv:

00000000 <_ZN7Message5resetEv>:
   0:	fc 01       	movw	r30, r24
   2:	10 82       	st	Z, r1
   4:	11 82       	std	Z+1, r1	; 0x01
   6:	12 82       	std	Z+2, r1	; 0x02
   8:	08 95       	ret

Disassembly of section .text._ZN7Message5getIdEv:

00000000 <_ZN7Message5getIdEv>:
   0:	fc 01       	movw	r30, r24
   2:	80 81       	ld	r24, Z
   4:	08 95       	ret

Disassembly of section .text._ZN7Message5setIdEh:

00000000 <_ZN7Message5setIdEh>:
   0:	fc 01       	movw	r30, r24
   2:	60 83       	st	Z, r22
   4:	08 95       	ret

Disassembly of section .text._ZN7Message14generateNextIdEv:

00000000 <_ZN7Message14generateNextIdEv>:
   0:	fc 01       	movw	r30, r24
   2:	90 91 00 00 	lds	r25, 0x0000	; 0x800000 <__SREG__+0x7fffc1>
   6:	9f 5f       	subi	r25, 0xFF	; 255
   8:	90 93 00 00 	sts	0x0000, r25	; 0x800000 <__SREG__+0x7fffc1>
   c:	90 83       	st	Z, r25
   e:	08 95       	ret

Disassembly of section .text._ZN7Message7getTypeEv:

00000000 <_ZN7Message7getTypeEv>:
   0:	fc 01       	movw	r30, r24
   2:	81 81       	ldd	r24, Z+1	; 0x01
   4:	08 95       	ret

Disassembly of section .text._ZN7Message7setTypeEh:

00000000 <_ZN7Message7setTypeEh>:
   0:	fc 01       	movw	r30, r24
   2:	61 83       	std	Z+1, r22	; 0x01
   4:	08 95       	ret

Disassembly of section .text._ZN7Message14getPayloadSizeEv:

00000000 <_ZN7Message14getPayloadSizeEv>:
   0:	fc 01       	movw	r30, r24
   2:	82 81       	ldd	r24, Z+2	; 0x02
   4:	08 95       	ret

Disassembly of section .text._ZN7Message14setPayloadSizeEh:

00000000 <_ZN7Message14setPayloadSizeEh>:
   0:	fc 01       	movw	r30, r24
   2:	62 83       	std	Z+2, r22	; 0x02
   4:	08 95       	ret

Disassembly of section .text._ZN7Message10getPayloadEv:

00000000 <_ZN7Message10getPayloadEv>:
   0:	fc 01       	movw	r30, r24
   2:	83 81       	ldd	r24, Z+3	; 0x03
   4:	94 81       	ldd	r25, Z+4	; 0x04
   6:	08 95       	ret

Disassembly of section .text._ZN7Message10setPayloadEPh:

00000000 <_ZN7Message10setPayloadEPh>:
   0:	fc 01       	movw	r30, r24
   2:	74 83       	std	Z+4, r23	; 0x04
   4:	63 83       	std	Z+3, r22	; 0x03
   6:	08 95       	ret

Disassembly of section .text._ZN7Message5toRawEPh:

00000000 <_ZN7Message5toRawEPh>:
   0:	cf 93       	push	r28
   2:	df 93       	push	r29
   4:	dc 01       	movw	r26, r24
   6:	fb 01       	movw	r30, r22
   8:	8a ea       	ldi	r24, 0xAA	; 170
   a:	80 83       	st	Z, r24
   c:	8c 91       	ld	r24, X
   e:	81 83       	std	Z+1, r24	; 0x01
  10:	11 96       	adiw	r26, 0x01	; 1
  12:	8c 91       	ld	r24, X
  14:	11 97       	sbiw	r26, 0x01	; 1
  16:	82 83       	std	Z+2, r24	; 0x02
  18:	12 96       	adiw	r26, 0x02	; 2
  1a:	8c 91       	ld	r24, X
  1c:	12 97       	sbiw	r26, 0x02	; 2
  1e:	83 83       	std	Z+3, r24	; 0x03
  20:	34 96       	adiw	r30, 0x04	; 4
  22:	84 e0       	ldi	r24, 0x04	; 4
  24:	90 e0       	ldi	r25, 0x00	; 0
  26:	cc ef       	ldi	r28, 0xFC	; 252
  28:	c8 0f       	add	r28, r24
  2a:	01 96       	adiw	r24, 0x01	; 1
  2c:	12 96       	adiw	r26, 0x02	; 2
  2e:	2c 91       	ld	r18, X
  30:	12 97       	sbiw	r26, 0x02	; 2
  32:	c2 17       	cp	r28, r18
  34:	00 f4       	brcc	.+0      	; 0x36 <_ZN7Message5toRawEPh+0x36>
  36:	13 96       	adiw	r26, 0x03	; 3
  38:	2d 91       	ld	r18, X+
  3a:	3c 91       	ld	r19, X
  3c:	14 97       	sbiw	r26, 0x04	; 4
  3e:	c2 0f       	add	r28, r18
  40:	d3 2f       	mov	r29, r19
  42:	d1 1d       	adc	r29, r1
  44:	28 81       	ld	r18, Y
  46:	21 93       	st	Z+, r18
  48:	00 c0       	rjmp	.+0      	; 0x4a <_ZN7Message5toRawEPh+0x4a>
  4a:	2b eb       	ldi	r18, 0xBB	; 187
  4c:	20 83       	st	Z, r18
  4e:	df 91       	pop	r29
  50:	cf 91       	pop	r28
  52:	08 95       	ret
